target datalayout = "e-m:e-p270:32:32-p271:32:32-p272:64:64-i64:64-i128:128-f80:128-n8:16:32:64-S128"
target triple = "x86_64-pc-linux-gnu"

%struct.nameData = type { [64 x i8] }
%struct.ScanKeyData = type { i32, i16, i16, i32, i32, %struct.FmgrInfo, i64 }
%struct.FmgrInfo = type { ptr, i32, i16, i8, i8, i8, ptr, ptr, ptr }
%struct.FormData_pg_constraint = type { i32, %struct.nameData, i32, i8, i8, i8, i8, i8, i32, i32, i32, i32, i32, i8, i8, i8, i8, i16, i8, i8 }
%struct.HeapTupleData = type { i32, %struct.ItemPointerData, i32, ptr }
%struct.ItemPointerData = type { %struct.BlockIdData, i16 }
%struct.BlockIdData = type { i16, i16 }
%struct.HeapTupleHeaderData = type { %union.anon, %struct.ItemPointerData, i16, i16, i8, [0 x i8] }
%union.anon = type { %struct.HeapTupleFields }
%struct.HeapTupleFields = type { i32, i32, %union.anon.0 }
%union.anon.0 = type { i32 }

@object_access_hook = external global ptr, align 8
@.str.2 = private unnamed_addr constant [16 x i8] c"pg_constraint.c\00", align 1
@.str.5 = private unnamed_addr constant [38 x i8] c"cache lookup failed for constraint %u\00", align 1
@__func__.RenameConstraintById = private unnamed_addr constant [21 x i8] c"RenameConstraintById\00", align 1
@.str.9 = private unnamed_addr constant [49 x i8] c"constraint \22%s\22 for relation \22%s\22 already exists\00", align 1
@.str.10 = private unnamed_addr constant [45 x i8] c"constraint \22%s\22 for domain %s already exists\00", align 1

; Function Attrs: inlinehint nounwind uwtable
define internal i64 @PointerGetDatum(ptr noundef %0) #3 {
  %2 = alloca ptr, align 8
  store ptr %0, ptr %2, align 8
  %3 = load ptr, ptr %2, align 8
  %4 = ptrtoint ptr %3 to i64
  ret i64 %4
}

; Function Attrs: inlinehint nounwind uwtable
define internal i64 @CStringGetDatum(ptr noundef %0) #3 {
  %2 = alloca ptr, align 8
  store ptr %0, ptr %2, align 8
  %3 = load ptr, ptr %2, align 8
  %4 = call i64 @PointerGetDatum(ptr noundef %3)
  ret i64 %4
}

; Function Attrs: nounwind uwtable
define dso_local zeroext i1 @ConstraintNameIsUsed(i32 noundef %0, i32 noundef %1, ptr noundef %2) #0 {
  %4 = alloca i32, align 4
  %5 = alloca i32, align 4
  %6 = alloca ptr, align 8
  %7 = alloca i8, align 1
  %8 = alloca ptr, align 8
  %9 = alloca ptr, align 8
  %10 = alloca [3 x %struct.ScanKeyData], align 16
  store i32 %0, ptr %4, align 4
  store i32 %1, ptr %5, align 4
  store ptr %2, ptr %6, align 8
  call void @llvm.lifetime.start.p0(i64 1, ptr %7) #9
  call void @llvm.lifetime.start.p0(i64 8, ptr %8) #9
  call void @llvm.lifetime.start.p0(i64 8, ptr %9) #9
  call void @llvm.lifetime.start.p0(i64 216, ptr %10) #9
  %11 = call ptr @table_open(i32 noundef 2606, i32 noundef 1)
  store ptr %11, ptr %8, align 8
  %12 = getelementptr inbounds [3 x %struct.ScanKeyData], ptr %10, i64 0, i64 0
  %13 = load i32, ptr %4, align 4
  %14 = icmp eq i32 %13, 0
  br i1 %14, label %15, label %17

15:                                               ; preds = %3
  %16 = load i32, ptr %5, align 4
  br label %18

17:                                               ; preds = %3
  br label %18

18:                                               ; preds = %17, %15
  %19 = phi i32 [ %16, %15 ], [ 0, %17 ]
  %20 = call i64 @ObjectIdGetDatum(i32 noundef %19)
  call void @ScanKeyInit(ptr noundef %12, i16 noundef signext 9, i16 noundef zeroext 3, i32 noundef 184, i64 noundef %20)
  %21 = getelementptr inbounds [3 x %struct.ScanKeyData], ptr %10, i64 0, i64 1
  %22 = load i32, ptr %4, align 4
  %23 = icmp eq i32 %22, 1
  br i1 %23, label %24, label %26

24:                                               ; preds = %18
  %25 = load i32, ptr %5, align 4
  br label %27

26:                                               ; preds = %18
  br label %27

27:                                               ; preds = %26, %24
  %28 = phi i32 [ %25, %24 ], [ 0, %26 ]
  %29 = call i64 @ObjectIdGetDatum(i32 noundef %28)
  call void @ScanKeyInit(ptr noundef %21, i16 noundef signext 10, i16 noundef zeroext 3, i32 noundef 184, i64 noundef %29)
  %30 = getelementptr inbounds [3 x %struct.ScanKeyData], ptr %10, i64 0, i64 2
  %31 = load ptr, ptr %6, align 8
  %32 = call i64 @CStringGetDatum(ptr noundef %31)
  call void @ScanKeyInit(ptr noundef %30, i16 noundef signext 2, i16 noundef zeroext 3, i32 noundef 62, i64 noundef %32)
  %33 = load ptr, ptr %8, align 8
  %34 = getelementptr inbounds [3 x %struct.ScanKeyData], ptr %10, i64 0, i64 0
  %35 = call ptr @systable_beginscan(ptr noundef %33, i32 noundef 2665, i1 noundef zeroext true, ptr noundef null, i32 noundef 3, ptr noundef %34)
  store ptr %35, ptr %9, align 8
  %36 = load ptr, ptr %9, align 8
  %37 = call ptr @systable_getnext(ptr noundef %36)
  %38 = icmp ne ptr %37, null
  %39 = zext i1 %38 to i8
  store i8 %39, ptr %7, align 1
  %40 = load ptr, ptr %9, align 8
  call void @systable_endscan(ptr noundef %40)
  %41 = load ptr, ptr %8, align 8
  call void @table_close(ptr noundef %41, i32 noundef 1)
  %42 = load i8, ptr %7, align 1, !range !13, !noundef !14
  %43 = trunc i8 %42 to i1
  call void @llvm.lifetime.end.p0(i64 216, ptr %10) #9
  call void @llvm.lifetime.end.p0(i64 8, ptr %9) #9
  call void @llvm.lifetime.end.p0(i64 8, ptr %8) #9
  call void @llvm.lifetime.end.p0(i64 1, ptr %7) #9
  ret i1 %43
}

; Function Attrs: inlinehint nounwind uwtable
define internal ptr @GETSTRUCT(ptr noundef %0) #3 {
  %2 = alloca ptr, align 8
  store ptr %0, ptr %2, align 8
  %3 = load ptr, ptr %2, align 8
  %4 = getelementptr inbounds nuw %struct.HeapTupleData, ptr %3, i32 0, i32 3
  %5 = load ptr, ptr %4, align 8
  %6 = load ptr, ptr %2, align 8
  %7 = getelementptr inbounds nuw %struct.HeapTupleData, ptr %6, i32 0, i32 3
  %8 = load ptr, ptr %7, align 8
  %9 = getelementptr inbounds nuw %struct.HeapTupleHeaderData, ptr %8, i32 0, i32 4
  %10 = load i8, ptr %9, align 2
  %11 = zext i8 %10 to i32
  %12 = sext i32 %11 to i64
  %13 = getelementptr inbounds i8, ptr %5, i64 %12
  ret ptr %13
}

; Function Attrs: inlinehint nounwind uwtable
define internal i64 @ObjectIdGetDatum(i32 noundef %0) #3 {
  %2 = alloca i32, align 4
  store i32 %0, ptr %2, align 4
  %3 = load i32, ptr %2, align 4
  %4 = zext i32 %3 to i64
  ret i64 %4
}

; Function Attrs: nounwind uwtable
define dso_local void @RenameConstraintById(i32 noundef %0, ptr noundef %1) #0 {
  %3 = alloca i32, align 4
  %4 = alloca ptr, align 8
  %5 = alloca ptr, align 8
  %6 = alloca ptr, align 8
  %7 = alloca ptr, align 8
  store i32 %0, ptr %3, align 4
  store ptr %1, ptr %4, align 8
  call void @llvm.lifetime.start.p0(i64 8, ptr %5) #9
  call void @llvm.lifetime.start.p0(i64 8, ptr %6) #9
  call void @llvm.lifetime.start.p0(i64 8, ptr %7) #9
  %8 = call ptr @table_open(i32 noundef 2606, i32 noundef 3)
  store ptr %8, ptr %5, align 8
  %9 = load i32, ptr %3, align 4
  %10 = call i64 @ObjectIdGetDatum(i32 noundef %9)
  %11 = call ptr @SearchSysCacheCopy(i32 noundef 19, i64 noundef %10, i64 noundef 0, i64 noundef 0, i64 noundef 0)
  store ptr %11, ptr %6, align 8
  %12 = load ptr, ptr %6, align 8
  %13 = icmp ne ptr %12, null
  br i1 %13, label %26, label %14

14:                                               ; preds = %2
  br label %15

15:                                               ; preds = %14
  br i1 true, label %16, label %18

16:                                               ; preds = %15
  %17 = call zeroext i1 @errstart_cold(i32 noundef 21, ptr noundef null) #11
  br i1 %17, label %20, label %23

18:                                               ; preds = %15
  %19 = call zeroext i1 @errstart(i32 noundef 21, ptr noundef null)
  br i1 %19, label %20, label %23

20:                                               ; preds = %18, %16
  %21 = load i32, ptr %3, align 4
  %22 = call i32 (ptr, ...) @errmsg_internal(ptr noundef @.str.5, i32 noundef %21)
  call void @errfinish(ptr noundef @.str.2, i32 noundef 972, ptr noundef @__func__.RenameConstraintById)
  br label %23

23:                                               ; preds = %20, %18, %16
  unreachable

24:                                               ; No predecessors!
  br label %25

25:                                               ; preds = %24
  br label %26

26:                                               ; preds = %25, %2
  %27 = load ptr, ptr %6, align 8
  %28 = call ptr @GETSTRUCT(ptr noundef %27)
  store ptr %28, ptr %7, align 8
  %29 = load ptr, ptr %7, align 8
  %30 = getelementptr inbounds nuw %struct.FormData_pg_constraint, ptr %29, i32 0, i32 8
  %31 = load i32, ptr %30, align 4
  %32 = icmp ne i32 %31, 0
  br i1 %32, label %33, label %56

33:                                               ; preds = %26
  %34 = load ptr, ptr %7, align 8
  %35 = getelementptr inbounds nuw %struct.FormData_pg_constraint, ptr %34, i32 0, i32 8
  %36 = load i32, ptr %35, align 4
  %37 = load ptr, ptr %4, align 8
  %38 = call zeroext i1 @ConstraintNameIsUsed(i32 noundef 0, i32 noundef %36, ptr noundef %37)
  br i1 %38, label %39, label %56

39:                                               ; preds = %33
  br label %40

40:                                               ; preds = %39
  br i1 true, label %41, label %43

41:                                               ; preds = %40
  %42 = call zeroext i1 @errstart_cold(i32 noundef 21, ptr noundef null) #11
  br i1 %42, label %45, label %53

43:                                               ; preds = %40
  %44 = call zeroext i1 @errstart(i32 noundef 21, ptr noundef null)
  br i1 %44, label %45, label %53

45:                                               ; preds = %43, %41
  %46 = call i32 @errcode(i32 noundef 290948)
  %47 = load ptr, ptr %4, align 8
  %48 = load ptr, ptr %7, align 8
  %49 = getelementptr inbounds nuw %struct.FormData_pg_constraint, ptr %48, i32 0, i32 8
  %50 = load i32, ptr %49, align 4
  %51 = call ptr @get_rel_name(i32 noundef %50)
  %52 = call i32 (ptr, ...) @errmsg(ptr noundef @.str.9, ptr noundef %47, ptr noundef %51)
  call void @errfinish(ptr noundef @.str.2, i32 noundef 985, ptr noundef @__func__.RenameConstraintById)
  br label %53

53:                                               ; preds = %45, %43, %41
  unreachable

54:                                               ; No predecessors!
  br label %55

55:                                               ; preds = %54
  br label %56

56:                                               ; preds = %55, %33, %26
  %57 = load ptr, ptr %7, align 8
  %58 = getelementptr inbounds nuw %struct.FormData_pg_constraint, ptr %57, i32 0, i32 9
  %59 = load i32, ptr %58, align 4
  %60 = icmp ne i32 %59, 0
  br i1 %60, label %61, label %84

61:                                               ; preds = %56
  %62 = load ptr, ptr %7, align 8
  %63 = getelementptr inbounds nuw %struct.FormData_pg_constraint, ptr %62, i32 0, i32 9
  %64 = load i32, ptr %63, align 4
  %65 = load ptr, ptr %4, align 8
  %66 = call zeroext i1 @ConstraintNameIsUsed(i32 noundef 1, i32 noundef %64, ptr noundef %65)
  br i1 %66, label %67, label %84

67:                                               ; preds = %61
  br label %68

68:                                               ; preds = %67
  br i1 true, label %69, label %71

69:                                               ; preds = %68
  %70 = call zeroext i1 @errstart_cold(i32 noundef 21, ptr noundef null) #11
  br i1 %70, label %73, label %81

71:                                               ; preds = %68
  %72 = call zeroext i1 @errstart(i32 noundef 21, ptr noundef null)
  br i1 %72, label %73, label %81

73:                                               ; preds = %71, %69
  %74 = call i32 @errcode(i32 noundef 290948)
  %75 = load ptr, ptr %4, align 8
  %76 = load ptr, ptr %7, align 8
  %77 = getelementptr inbounds nuw %struct.FormData_pg_constraint, ptr %76, i32 0, i32 9
  %78 = load i32, ptr %77, align 4
  %79 = call ptr @format_type_be(i32 noundef %78)
  %80 = call i32 (ptr, ...) @errmsg(ptr noundef @.str.10, ptr noundef %75, ptr noundef %79)
  call void @errfinish(ptr noundef @.str.2, i32 noundef 993, ptr noundef @__func__.RenameConstraintById)
  br label %81

81:                                               ; preds = %73, %71, %69
  unreachable

82:                                               ; No predecessors!
  br label %83

83:                                               ; preds = %82
  br label %84

84:                                               ; preds = %83, %61, %56
  %85 = load ptr, ptr %7, align 8
  %86 = getelementptr inbounds nuw %struct.FormData_pg_constraint, ptr %85, i32 0, i32 1
  %87 = load ptr, ptr %4, align 8
  call void @namestrcpy(ptr noundef %86, ptr noundef %87)
  %88 = load ptr, ptr %5, align 8
  %89 = load ptr, ptr %6, align 8
  %90 = getelementptr inbounds nuw %struct.HeapTupleData, ptr %89, i32 0, i32 1
  %91 = load ptr, ptr %6, align 8
  call void @CatalogTupleUpdate(ptr noundef %88, ptr noundef %90, ptr noundef %91)
  br label %92

92:                                               ; preds = %84
  %93 = load ptr, ptr @object_access_hook, align 8
  %94 = icmp ne ptr %93, null
  br i1 %94, label %95, label %97

95:                                               ; preds = %92
  %96 = load i32, ptr %3, align 4
  call void @RunObjectPostAlterHook(i32 noundef 2606, i32 noundef %96, i32 noundef 0, i32 noundef 0, i1 noundef zeroext false)
  br label %97

97:                                               ; preds = %95, %92
  br label %98

98:                                               ; preds = %97
  br label %99

99:                                               ; preds = %98
  %100 = load ptr, ptr %6, align 8
  call void @heap_freetuple(ptr noundef %100)
  %101 = load ptr, ptr %5, align 8
  call void @table_close(ptr noundef %101, i32 noundef 3)
  call void @llvm.lifetime.end.p0(i64 8, ptr %7) #9
  call void @llvm.lifetime.end.p0(i64 8, ptr %6) #9
  call void @llvm.lifetime.end.p0(i64 8, ptr %5) #9
  ret void
}