; Function Attrs: nounwind uwtable
define dso_local void @RenameConstraintById(i32 noundef %0, ptr noundef %1) local_unnamed_addr #0 {
  %3 = alloca [3 x %struct.ScanKeyData], align 16
  %4 = alloca [3 x %struct.ScanKeyData], align 16
  %5 = tail call ptr @table_open(i32 noundef 2606, i32 noundef 3) #12
  %6 = zext i32 %0 to i64
  %7 = tail call ptr @SearchSysCacheCopy(i32 noundef 19, i64 noundef %6, i64 noundef 0, i64 noundef 0, i64 noundef 0) #12
  %.not = icmp eq ptr %7, null
  br i1 %.not, label %8, label %11

8:                                                ; preds = %2
  %9 = tail call zeroext i1 @errstart_cold(i32 noundef 21, ptr noundef null) #14
  tail call void @llvm.assume(i1 %9)
  %10 = tail call i32 (ptr, ...) @errmsg_internal(ptr noundef nonnull @.str.5, i32 noundef %0) #12
  tail call void @errfinish(ptr noundef nonnull @.str.2, i32 noundef 972, ptr noundef nonnull @__func__.RenameConstraintById) #12
  unreachable

11:                                               ; preds = %2
  %12 = getelementptr i8, ptr %7, i64 16
  %.val = load ptr, ptr %12, align 8
  %13 = getelementptr inbounds nuw i8, ptr %.val, i64 22
  %14 = load i8, ptr %13, align 2
  %15 = zext i8 %14 to i64
  %16 = getelementptr inbounds nuw i8, ptr %.val, i64 %15
  %17 = getelementptr inbounds nuw i8, ptr %16, i64 80
  %18 = load i32, ptr %17, align 4
  %.not23 = icmp eq i32 %18, 0
  br i1 %.not23, label %33, label %19

19:                                               ; preds = %11
  call void @llvm.lifetime.start.p0(i64 216, ptr nonnull %4) #12
  %20 = tail call ptr @table_open(i32 noundef 2606, i32 noundef 1) #12
  %21 = zext i32 %18 to i64
  call void @ScanKeyInit(ptr noundef nonnull %4, i16 noundef signext 9, i16 noundef zeroext 3, i32 noundef 184, i64 noundef %21) #12
  %22 = getelementptr inbounds nuw i8, ptr %4, i64 72
  call void @ScanKeyInit(ptr noundef nonnull %22, i16 noundef signext 10, i16 noundef zeroext 3, i32 noundef 184, i64 noundef 0) #12
  %23 = getelementptr inbounds nuw i8, ptr %4, i64 144
  %24 = ptrtoint ptr %1 to i64
  call void @ScanKeyInit(ptr noundef nonnull %23, i16 noundef signext 2, i16 noundef zeroext 3, i32 noundef 62, i64 noundef %24) #12
  %25 = call ptr @systable_beginscan(ptr noundef %20, i32 noundef 2665, i1 noundef zeroext true, ptr noundef null, i32 noundef 3, ptr noundef nonnull %4) #12
  %26 = call ptr @systable_getnext(ptr noundef %25) #12
  %.not26 = icmp eq ptr %26, null
  call void @systable_endscan(ptr noundef %25) #12
  call void @table_close(ptr noundef %20, i32 noundef 1) #12
  call void @llvm.lifetime.end.p0(i64 216, ptr nonnull %4) #12
  br i1 %.not26, label %33, label %27

27:                                               ; preds = %19
  %28 = call zeroext i1 @errstart_cold(i32 noundef 21, ptr noundef null) #14
  call void @llvm.assume(i1 %28)
  %29 = call i32 @errcode(i32 noundef 290948) #12
  %30 = load i32, ptr %17, align 4
  %31 = call ptr @get_rel_name(i32 noundef %30) #12
  %32 = call i32 (ptr, ...) @errmsg(ptr noundef nonnull @.str.9, ptr noundef %1, ptr noundef %31) #12
  call void @errfinish(ptr noundef nonnull @.str.2, i32 noundef 985, ptr noundef nonnull @__func__.RenameConstraintById) #12
  unreachable

33:                                               ; preds = %19, %11
  %34 = getelementptr inbounds nuw i8, ptr %16, i64 84
  %35 = load i32, ptr %34, align 4
  %.not24 = icmp eq i32 %35, 0
  br i1 %.not24, label %50, label %36

36:                                               ; preds = %33
  call void @llvm.lifetime.start.p0(i64 216, ptr nonnull %3) #12
  %37 = call ptr @table_open(i32 noundef 2606, i32 noundef 1) #12
  call void @ScanKeyInit(ptr noundef nonnull %3, i16 noundef signext 9, i16 noundef zeroext 3, i32 noundef 184, i64 noundef 0) #12
  %38 = getelementptr inbounds nuw i8, ptr %3, i64 72
  %39 = zext i32 %35 to i64
  call void @ScanKeyInit(ptr noundef nonnull %38, i16 noundef signext 10, i16 noundef zeroext 3, i32 noundef 184, i64 noundef %39) #12
  %40 = getelementptr inbounds nuw i8, ptr %3, i64 144
  %41 = ptrtoint ptr %1 to i64
  call void @ScanKeyInit(ptr noundef nonnull %40, i16 noundef signext 2, i16 noundef zeroext 3, i32 noundef 62, i64 noundef %41) #12
  %42 = call ptr @systable_beginscan(ptr noundef %37, i32 noundef 2665, i1 noundef zeroext true, ptr noundef null, i32 noundef 3, ptr noundef nonnull %3) #12
  %43 = call ptr @systable_getnext(ptr noundef %42) #12
  %.not27 = icmp eq ptr %43, null
  call void @systable_endscan(ptr noundef %42) #12
  call void @table_close(ptr noundef %37, i32 noundef 1) #12
  call void @llvm.lifetime.end.p0(i64 216, ptr nonnull %3) #12
  br i1 %.not27, label %50, label %44

44:                                               ; preds = %36
  %45 = call zeroext i1 @errstart_cold(i32 noundef 21, ptr noundef null) #14
  call void @llvm.assume(i1 %45)
  %46 = call i32 @errcode(i32 noundef 290948) #12
  %47 = load i32, ptr %34, align 4
  %48 = call ptr @format_type_be(i32 noundef %47) #12
  %49 = call i32 (ptr, ...) @errmsg(ptr noundef nonnull @.str.10, ptr noundef %1, ptr noundef %48) #12
  call void @errfinish(ptr noundef nonnull @.str.2, i32 noundef 993, ptr noundef nonnull @__func__.RenameConstraintById) #12
  unreachable

50:                                               ; preds = %36, %33
  %51 = getelementptr inbounds nuw i8, ptr %16, i64 4
  call void @namestrcpy(ptr noundef nonnull %51, ptr noundef %1) #12
  %52 = getelementptr inbounds nuw i8, ptr %7, i64 4
  call void @CatalogTupleUpdate(ptr noundef %5, ptr noundef nonnull %52, ptr noundef nonnull %7) #12
  %53 = load ptr, ptr @object_access_hook, align 8
  %.not25 = icmp eq ptr %53, null
  br i1 %.not25, label %55, label %54

54:                                               ; preds = %50
  call void @RunObjectPostAlterHook(i32 noundef 2606, i32 noundef %0, i32 noundef 0, i32 noundef 0, i1 noundef zeroext false) #12
  br label %55

55:                                               ; preds = %54, %50
  call void @heap_freetuple(ptr noundef nonnull %7) #12
  call void @table_close(ptr noundef %5, i32 noundef 3) #12
  ret void
}